; ModuleID = 'source-C-CXX/6/746.c'
source_filename = "source-C-CXX/6/746.c"
target datalayout = "e-m:e-p270:32:32-p271:32:32-p272:64:64-i64:64-f80:128-n8:16:32:64-S128"
target triple = "x86_64-pc-linux-gnu"

@.str = private unnamed_addr constant [7 x i8] c"%s%s%s\00", align 1
@.str.1 = private unnamed_addr constant [3 x i8] c"%s\00", align 1

; Function Attrs: nofree nounwind sspstrong uwtable
define dso_local i32 @main() local_unnamed_addr #0 {
  %1 = alloca [256 x i8], align 16
  %2 = alloca [256 x i8], align 16
  %3 = alloca [256 x i8], align 16
  %4 = getelementptr inbounds [256 x i8], [256 x i8]* %3, i64 0, i64 0
  %5 = getelementptr inbounds [256 x i8], [256 x i8]* %1, i64 0, i64 0
  call void @llvm.lifetime.start.p0i8(i64 256, i8* nonnull %5) #5
  %6 = getelementptr inbounds [256 x i8], [256 x i8]* %2, i64 0, i64 0
  call void @llvm.lifetime.start.p0i8(i64 256, i8* nonnull %6) #5
  %7 = getelementptr inbounds [256 x i8], [256 x i8]* %3, i64 0, i64 0
  call void @llvm.lifetime.start.p0i8(i64 256, i8* nonnull %7) #5
  %8 = call i32 (i8*, ...) @__isoc99_scanf(i8* getelementptr inbounds ([7 x i8], [7 x i8]* @.str, i64 0, i64 0), [256 x i8]* nonnull %1, [256 x i8]* nonnull %2, [256 x i8]* nonnull %3)
  %9 = call i64 @strlen(i8* noundef nonnull %5) #6
  %10 = trunc i64 %9 to i32
  %11 = call i64 @strlen(i8* noundef nonnull %6) #6
  %12 = load i8, i8* %6, align 16
  %13 = icmp sgt i32 %10, 0
  br i1 %13, label %14, label %53

14:                                               ; preds = %0
  %15 = trunc i64 %11 to i32
  %16 = icmp sgt i32 %15, 0
  %17 = and i64 %9, 4294967295
  br i1 %16, label %18, label %39

18:                                               ; preds = %14
  %19 = and i64 %11, 4294967295
  br label %20

20:                                               ; preds = %18, %36
  %21 = phi i64 [ 0, %18 ], [ %37, %36 ]
  %22 = getelementptr inbounds [256 x i8], [256 x i8]* %1, i64 0, i64 %21
  %23 = load i8, i8* %22, align 1, !tbaa !5
  %24 = icmp eq i8 %23, %12
  br i1 %24, label %27, label %36

25:                                               ; preds = %27
  %26 = icmp eq i64 %35, %19
  br i1 %26, label %44, label %27, !llvm.loop !8

27:                                               ; preds = %20, %25
  %28 = phi i64 [ %35, %25 ], [ 0, %20 ]
  %29 = add nuw nsw i64 %28, %21
  %30 = getelementptr inbounds [256 x i8], [256 x i8]* %1, i64 0, i64 %29
  %31 = load i8, i8* %30, align 1, !tbaa !5
  %32 = getelementptr inbounds [256 x i8], [256 x i8]* %2, i64 0, i64 %28
  %33 = load i8, i8* %32, align 1, !tbaa !5
  %34 = icmp eq i8 %31, %33
  %35 = add nuw nsw i64 %28, 1
  br i1 %34, label %25, label %36

36:                                               ; preds = %27, %20
  %37 = add nuw nsw i64 %21, 1
  %38 = icmp eq i64 %37, %17
  br i1 %38, label %53, label %20, !llvm.loop !10

39:                                               ; preds = %14, %50
  %40 = phi i64 [ %51, %50 ], [ 0, %14 ]
  %41 = getelementptr inbounds [256 x i8], [256 x i8]* %1, i64 0, i64 %40
  %42 = load i8, i8* %41, align 1, !tbaa !5
  %43 = icmp eq i8 %42, %12
  br i1 %43, label %44, label %50

44:                                               ; preds = %39, %25
  %45 = phi i64 [ %21, %25 ], [ %40, %39 ]
  br i1 %16, label %46, label %53

46:                                               ; preds = %44
  %47 = and i64 %45, 4294967295
  %48 = getelementptr [256 x i8], [256 x i8]* %1, i64 0, i64 %47
  %49 = and i64 %11, 4294967295
  call void @llvm.memcpy.p0i8.p0i8.i64(i8* align 1 %48, i8* nonnull align 16 %4, i64 %49, i1 false)
  br label %53

50:                                               ; preds = %39
  %51 = add nuw nsw i64 %40, 1
  %52 = icmp eq i64 %51, %17
  br i1 %52, label %53, label %39, !llvm.loop !10

53:                                               ; preds = %50, %36, %46, %0, %44
  %54 = call i32 (i8*, ...) @printf(i8* nonnull dereferenceable(1) getelementptr inbounds ([3 x i8], [3 x i8]* @.str.1, i64 0, i64 0), i8* nonnull %5)
  call void @llvm.lifetime.end.p0i8(i64 256, i8* nonnull %7) #5
  call void @llvm.lifetime.end.p0i8(i64 256, i8* nonnull %6) #5
  call void @llvm.lifetime.end.p0i8(i64 256, i8* nonnull %5) #5
  ret i32 0
}

; Function Attrs: argmemonly mustprogress nofree nosync nounwind willreturn
declare void @llvm.lifetime.start.p0i8(i64 immarg, i8* nocapture) #1

; Function Attrs: nofree nounwind
declare noundef i32 @__isoc99_scanf(i8* nocapture noundef readonly, ...) local_unnamed_addr #2

; Function Attrs: argmemonly mustprogress nofree nounwind readonly willreturn
declare i64 @strlen(i8* nocapture) local_unnamed_addr #3

; Function Attrs: nofree nounwind
declare noundef i32 @printf(i8* nocapture noundef readonly, ...) local_unnamed_addr #2

; Function Attrs: argmemonly mustprogress nofree nosync nounwind willreturn
declare void @llvm.lifetime.end.p0i8(i64 immarg, i8* nocapture) #1

; Function Attrs: argmemonly nofree nounwind willreturn
declare void @llvm.memcpy.p0i8.p0i8.i64(i8* noalias nocapture writeonly, i8* noalias nocapture readonly, i64, i1 immarg) #4


!llvm.module.flags = !{!0, !1, !2, !3}
!llvm.ident = !{!4}

!0 = !{i32 1, !"wchar_size", i32 4}
!1 = !{i32 7, !"PIC Level", i32 2}
!2 = !{i32 7, !"PIE Level", i32 2}
!3 = !{i32 7, !"uwtable", i32 1}
!4 = !{!"clang version 13.0.0"}
!5 = !{!6, !6, i64 0}
!6 = !{!"omnipotent char", !7, i64 0}
!7 = !{!"Simple C/C++ TBAA"}
!8 = distinct !{!8, !9}
!9 = !{!"llvm.loop.mustprogress"}
!10 = distinct !{!10, !9}
